	.file	"template_metaprogramming.cpp"
	.text
	.weak	_ZN9FactorialILi0EE5valueE
	.section	.data._ZN9FactorialILi0EE5valueE,"awG",@progbits,_ZN9FactorialILi0EE5valueE,comdat
	.align 4
	.type	_ZN9FactorialILi0EE5valueE, @gnu_unique_object
	.size	_ZN9FactorialILi0EE5valueE, 4
_ZN9FactorialILi0EE5valueE:
	.long	1
	.weak	_ZN9FactorialILi10EE5valueE
	.section	.bss._ZN9FactorialILi10EE5valueE,"awG",@nobits,_ZN9FactorialILi10EE5valueE,comdat
	.align 4
	.type	_ZN9FactorialILi10EE5valueE, @gnu_unique_object
	.size	_ZN9FactorialILi10EE5valueE, 4
_ZN9FactorialILi10EE5valueE:
	.zero	4
	.weak	_ZN9FactorialILi9EE5valueE
	.section	.bss._ZN9FactorialILi9EE5valueE,"awG",@nobits,_ZN9FactorialILi9EE5valueE,comdat
	.align 4
	.type	_ZN9FactorialILi9EE5valueE, @gnu_unique_object
	.size	_ZN9FactorialILi9EE5valueE, 4
_ZN9FactorialILi9EE5valueE:
	.zero	4
	.weak	_ZN9FactorialILi8EE5valueE
	.section	.bss._ZN9FactorialILi8EE5valueE,"awG",@nobits,_ZN9FactorialILi8EE5valueE,comdat
	.align 4
	.type	_ZN9FactorialILi8EE5valueE, @gnu_unique_object
	.size	_ZN9FactorialILi8EE5valueE, 4
_ZN9FactorialILi8EE5valueE:
	.zero	4
	.weak	_ZN9FactorialILi7EE5valueE
	.section	.bss._ZN9FactorialILi7EE5valueE,"awG",@nobits,_ZN9FactorialILi7EE5valueE,comdat
	.align 4
	.type	_ZN9FactorialILi7EE5valueE, @gnu_unique_object
	.size	_ZN9FactorialILi7EE5valueE, 4
_ZN9FactorialILi7EE5valueE:
	.zero	4
	.weak	_ZN9FactorialILi6EE5valueE
	.section	.bss._ZN9FactorialILi6EE5valueE,"awG",@nobits,_ZN9FactorialILi6EE5valueE,comdat
	.align 4
	.type	_ZN9FactorialILi6EE5valueE, @gnu_unique_object
	.size	_ZN9FactorialILi6EE5valueE, 4
_ZN9FactorialILi6EE5valueE:
	.zero	4
	.weak	_ZN9FactorialILi5EE5valueE
	.section	.bss._ZN9FactorialILi5EE5valueE,"awG",@nobits,_ZN9FactorialILi5EE5valueE,comdat
	.align 4
	.type	_ZN9FactorialILi5EE5valueE, @gnu_unique_object
	.size	_ZN9FactorialILi5EE5valueE, 4
_ZN9FactorialILi5EE5valueE:
	.zero	4
	.weak	_ZN9FactorialILi4EE5valueE
	.section	.bss._ZN9FactorialILi4EE5valueE,"awG",@nobits,_ZN9FactorialILi4EE5valueE,comdat
	.align 4
	.type	_ZN9FactorialILi4EE5valueE, @gnu_unique_object
	.size	_ZN9FactorialILi4EE5valueE, 4
_ZN9FactorialILi4EE5valueE:
	.zero	4
	.weak	_ZN9FactorialILi3EE5valueE
	.section	.bss._ZN9FactorialILi3EE5valueE,"awG",@nobits,_ZN9FactorialILi3EE5valueE,comdat
	.align 4
	.type	_ZN9FactorialILi3EE5valueE, @gnu_unique_object
	.size	_ZN9FactorialILi3EE5valueE, 4
_ZN9FactorialILi3EE5valueE:
	.zero	4
	.weak	_ZN9FactorialILi2EE5valueE
	.section	.bss._ZN9FactorialILi2EE5valueE,"awG",@nobits,_ZN9FactorialILi2EE5valueE,comdat
	.align 4
	.type	_ZN9FactorialILi2EE5valueE, @gnu_unique_object
	.size	_ZN9FactorialILi2EE5valueE, 4
_ZN9FactorialILi2EE5valueE:
	.zero	4
	.weak	_ZN9FactorialILi1EE5valueE
	.section	.bss._ZN9FactorialILi1EE5valueE,"awG",@nobits,_ZN9FactorialILi1EE5valueE,comdat
	.align 4
	.type	_ZN9FactorialILi1EE5valueE, @gnu_unique_object
	.size	_ZN9FactorialILi1EE5valueE, 4
_ZN9FactorialILi1EE5valueE:
	.zero	4
	.text
	.globl	main
	.type	main, @function
main:
.LFB0:
	.cfi_startproc
	endbr64
	pushq	%rbp
	.cfi_def_cfa_offset 16
	.cfi_offset 6, -16
	movq	%rsp, %rbp
	.cfi_def_cfa_register 6
	movl	_ZN9FactorialILi10EE5valueE(%rip), %eax
	popq	%rbp
	.cfi_def_cfa 7, 8
	ret
	.cfi_endproc
.LFE0:
	.size	main, .-main
	.weak	_ZGVN9FactorialILi1EE5valueE
	.section	.bss._ZGVN9FactorialILi1EE5valueE,"awG",@nobits,_ZGVN9FactorialILi1EE5valueE,comdat
	.align 8
	.type	_ZGVN9FactorialILi1EE5valueE, @gnu_unique_object
	.size	_ZGVN9FactorialILi1EE5valueE, 8
_ZGVN9FactorialILi1EE5valueE:
	.zero	8
	.weak	_ZGVN9FactorialILi2EE5valueE
	.section	.bss._ZGVN9FactorialILi2EE5valueE,"awG",@nobits,_ZGVN9FactorialILi2EE5valueE,comdat
	.align 8
	.type	_ZGVN9FactorialILi2EE5valueE, @gnu_unique_object
	.size	_ZGVN9FactorialILi2EE5valueE, 8
_ZGVN9FactorialILi2EE5valueE:
	.zero	8
	.weak	_ZGVN9FactorialILi3EE5valueE
	.section	.bss._ZGVN9FactorialILi3EE5valueE,"awG",@nobits,_ZGVN9FactorialILi3EE5valueE,comdat
	.align 8
	.type	_ZGVN9FactorialILi3EE5valueE, @gnu_unique_object
	.size	_ZGVN9FactorialILi3EE5valueE, 8
_ZGVN9FactorialILi3EE5valueE:
	.zero	8
	.weak	_ZGVN9FactorialILi4EE5valueE
	.section	.bss._ZGVN9FactorialILi4EE5valueE,"awG",@nobits,_ZGVN9FactorialILi4EE5valueE,comdat
	.align 8
	.type	_ZGVN9FactorialILi4EE5valueE, @gnu_unique_object
	.size	_ZGVN9FactorialILi4EE5valueE, 8
_ZGVN9FactorialILi4EE5valueE:
	.zero	8
	.weak	_ZGVN9FactorialILi5EE5valueE
	.section	.bss._ZGVN9FactorialILi5EE5valueE,"awG",@nobits,_ZGVN9FactorialILi5EE5valueE,comdat
	.align 8
	.type	_ZGVN9FactorialILi5EE5valueE, @gnu_unique_object
	.size	_ZGVN9FactorialILi5EE5valueE, 8
_ZGVN9FactorialILi5EE5valueE:
	.zero	8
	.weak	_ZGVN9FactorialILi6EE5valueE
	.section	.bss._ZGVN9FactorialILi6EE5valueE,"awG",@nobits,_ZGVN9FactorialILi6EE5valueE,comdat
	.align 8
	.type	_ZGVN9FactorialILi6EE5valueE, @gnu_unique_object
	.size	_ZGVN9FactorialILi6EE5valueE, 8
_ZGVN9FactorialILi6EE5valueE:
	.zero	8
	.weak	_ZGVN9FactorialILi7EE5valueE
	.section	.bss._ZGVN9FactorialILi7EE5valueE,"awG",@nobits,_ZGVN9FactorialILi7EE5valueE,comdat
	.align 8
	.type	_ZGVN9FactorialILi7EE5valueE, @gnu_unique_object
	.size	_ZGVN9FactorialILi7EE5valueE, 8
_ZGVN9FactorialILi7EE5valueE:
	.zero	8
	.weak	_ZGVN9FactorialILi8EE5valueE
	.section	.bss._ZGVN9FactorialILi8EE5valueE,"awG",@nobits,_ZGVN9FactorialILi8EE5valueE,comdat
	.align 8
	.type	_ZGVN9FactorialILi8EE5valueE, @gnu_unique_object
	.size	_ZGVN9FactorialILi8EE5valueE, 8
_ZGVN9FactorialILi8EE5valueE:
	.zero	8
	.weak	_ZGVN9FactorialILi9EE5valueE
	.section	.bss._ZGVN9FactorialILi9EE5valueE,"awG",@nobits,_ZGVN9FactorialILi9EE5valueE,comdat
	.align 8
	.type	_ZGVN9FactorialILi9EE5valueE, @gnu_unique_object
	.size	_ZGVN9FactorialILi9EE5valueE, 8
_ZGVN9FactorialILi9EE5valueE:
	.zero	8
	.weak	_ZGVN9FactorialILi10EE5valueE
	.section	.bss._ZGVN9FactorialILi10EE5valueE,"awG",@nobits,_ZGVN9FactorialILi10EE5valueE,comdat
	.align 8
	.type	_ZGVN9FactorialILi10EE5valueE, @gnu_unique_object
	.size	_ZGVN9FactorialILi10EE5valueE, 8
_ZGVN9FactorialILi10EE5valueE:
	.zero	8
	.text
	.type	_Z41__static_initialization_and_destruction_0v, @function
_Z41__static_initialization_and_destruction_0v:
.LFB1:
	.cfi_startproc
	endbr64
	pushq	%rbp
	.cfi_def_cfa_offset 16
	.cfi_offset 6, -16
	movq	%rsp, %rbp
	.cfi_def_cfa_register 6
	leaq	_ZGVN9FactorialILi1EE5valueE(%rip), %rax
	movzbl	(%rax), %eax
	testb	%al, %al
	jne	.L4
	leaq	_ZGVN9FactorialILi1EE5valueE(%rip), %rax
	movb	$1, (%rax)
	movl	_ZN9FactorialILi0EE5valueE(%rip), %eax
	movl	%eax, _ZN9FactorialILi1EE5valueE(%rip)
.L4:
	leaq	_ZGVN9FactorialILi2EE5valueE(%rip), %rax
	movzbl	(%rax), %eax
	testb	%al, %al
	jne	.L5
	leaq	_ZGVN9FactorialILi2EE5valueE(%rip), %rax
	movb	$1, (%rax)
	movl	_ZN9FactorialILi1EE5valueE(%rip), %eax
	movl	%eax, _ZN9FactorialILi2EE5valueE(%rip)
.L5:
	leaq	_ZGVN9FactorialILi3EE5valueE(%rip), %rax
	movzbl	(%rax), %eax
	testb	%al, %al
	jne	.L6
	leaq	_ZGVN9FactorialILi3EE5valueE(%rip), %rax
	movb	$1, (%rax)
	movl	_ZN9FactorialILi2EE5valueE(%rip), %eax
	movl	%eax, _ZN9FactorialILi3EE5valueE(%rip)
.L6:
	leaq	_ZGVN9FactorialILi4EE5valueE(%rip), %rax
	movzbl	(%rax), %eax
	testb	%al, %al
	jne	.L7
	leaq	_ZGVN9FactorialILi4EE5valueE(%rip), %rax
	movb	$1, (%rax)
	movl	_ZN9FactorialILi3EE5valueE(%rip), %eax
	movl	%eax, _ZN9FactorialILi4EE5valueE(%rip)
.L7:
	leaq	_ZGVN9FactorialILi5EE5valueE(%rip), %rax
	movzbl	(%rax), %eax
	testb	%al, %al
	jne	.L8
	leaq	_ZGVN9FactorialILi5EE5valueE(%rip), %rax
	movb	$1, (%rax)
	movl	_ZN9FactorialILi4EE5valueE(%rip), %eax
	movl	%eax, _ZN9FactorialILi5EE5valueE(%rip)
.L8:
	leaq	_ZGVN9FactorialILi6EE5valueE(%rip), %rax
	movzbl	(%rax), %eax
	testb	%al, %al
	jne	.L9
	leaq	_ZGVN9FactorialILi6EE5valueE(%rip), %rax
	movb	$1, (%rax)
	movl	_ZN9FactorialILi5EE5valueE(%rip), %eax
	movl	%eax, _ZN9FactorialILi6EE5valueE(%rip)
.L9:
	leaq	_ZGVN9FactorialILi7EE5valueE(%rip), %rax
	movzbl	(%rax), %eax
	testb	%al, %al
	jne	.L10
	leaq	_ZGVN9FactorialILi7EE5valueE(%rip), %rax
	movb	$1, (%rax)
	movl	_ZN9FactorialILi6EE5valueE(%rip), %eax
	movl	%eax, _ZN9FactorialILi7EE5valueE(%rip)
.L10:
	leaq	_ZGVN9FactorialILi8EE5valueE(%rip), %rax
	movzbl	(%rax), %eax
	testb	%al, %al
	jne	.L11
	leaq	_ZGVN9FactorialILi8EE5valueE(%rip), %rax
	movb	$1, (%rax)
	movl	_ZN9FactorialILi7EE5valueE(%rip), %eax
	movl	%eax, _ZN9FactorialILi8EE5valueE(%rip)
.L11:
	leaq	_ZGVN9FactorialILi9EE5valueE(%rip), %rax
	movzbl	(%rax), %eax
	testb	%al, %al
	jne	.L12
	leaq	_ZGVN9FactorialILi9EE5valueE(%rip), %rax
	movb	$1, (%rax)
	movl	_ZN9FactorialILi8EE5valueE(%rip), %eax
	movl	%eax, _ZN9FactorialILi9EE5valueE(%rip)
.L12:
	leaq	_ZGVN9FactorialILi10EE5valueE(%rip), %rax
	movzbl	(%rax), %eax
	testb	%al, %al
	jne	.L14
	leaq	_ZGVN9FactorialILi10EE5valueE(%rip), %rax
	movb	$1, (%rax)
	movl	_ZN9FactorialILi9EE5valueE(%rip), %eax
	movl	%eax, _ZN9FactorialILi10EE5valueE(%rip)
.L14:
	nop
	popq	%rbp
	.cfi_def_cfa 7, 8
	ret
	.cfi_endproc
.LFE1:
	.size	_Z41__static_initialization_and_destruction_0v, .-_Z41__static_initialization_and_destruction_0v
	.type	_GLOBAL__sub_I_main, @function
_GLOBAL__sub_I_main:
.LFB2:
	.cfi_startproc
	endbr64
	pushq	%rbp
	.cfi_def_cfa_offset 16
	.cfi_offset 6, -16
	movq	%rsp, %rbp
	.cfi_def_cfa_register 6
	call	_Z41__static_initialization_and_destruction_0v
	popq	%rbp
	.cfi_def_cfa 7, 8
	ret
	.cfi_endproc
.LFE2:
	.size	_GLOBAL__sub_I_main, .-_GLOBAL__sub_I_main
	.section	.init_array,"aw"
	.align 8
	.quad	_GLOBAL__sub_I_main
	.ident	"GCC: (Ubuntu 14.2.0-4ubuntu2~24.04) 14.2.0"
	.section	.note.GNU-stack,"",@progbits
	.section	.note.gnu.property,"a"
	.align 8
	.long	1f - 0f
	.long	4f - 1f
	.long	5
0:
	.string	"GNU"
1:
	.align 8
	.long	0xc0000002
	.long	3f - 2f
2:
	.long	0x3
3:
	.align 8
4:
